; ModuleID = '43/776.cpp'
source_filename = "43/776.cpp"
target datalayout = "e-m:e-p270:32:32-p271:32:32-p272:64:64-i64:64-f80:128-n8:16:32:64-S128"
target triple = "x86_64-pc-linux-gnu"

%"class.std::ios_base::Init" = type { i8 }
%"class.std::basic_istream" = type { i32 (...)**, i64, %"class.std::basic_ios" }
%"class.std::basic_ios" = type { %"class.std::ios_base", %"class.std::basic_ostream"*, i8, i8, %"class.std::basic_streambuf"*, %"class.std::ctype"*, %"class.std::num_put"*, %"class.std::num_get"* }
%"class.std::ios_base" = type { i32 (...)**, i64, i64, i32, i32, i32, %"struct.std::ios_base::_Callback_list"*, %"struct.std::ios_base::_Words", [8 x %"struct.std::ios_base::_Words"], i32, %"struct.std::ios_base::_Words"*, %"class.std::locale" }
%"struct.std::ios_base::_Callback_list" = type { %"struct.std::ios_base::_Callback_list"*, void (i32, %"class.std::ios_base"*, i32)*, i32, i32 }
%"struct.std::ios_base::_Words" = type { i8*, i64 }
%"class.std::locale" = type { %"class.std::locale::_Impl"* }
%"class.std::locale::_Impl" = type { i32, %"class.std::locale::facet"**, i64, %"class.std::locale::facet"**, i8** }
%"class.std::locale::facet" = type <{ i32 (...)**, i32, [4 x i8] }>
%"class.std::basic_ostream" = type { i32 (...)**, %"class.std::basic_ios" }
%"class.std::basic_streambuf" = type { i32 (...)**, i8*, i8*, i8*, i8*, i8*, i8*, %"class.std::locale" }
%"class.std::ctype" = type <{ %"class.std::locale::facet.base", [4 x i8], %struct.__locale_struct*, i8, [7 x i8], i32*, i32*, i16*, i8, [256 x i8], [256 x i8], i8, [6 x i8] }>
%"class.std::locale::facet.base" = type <{ i32 (...)**, i32 }>
%struct.__locale_struct = type { [13 x %struct.__locale_data*], i16*, i32*, i32*, [13 x i8*] }
%struct.__locale_data = type opaque
%"class.std::num_put" = type { %"class.std::locale::facet.base", [4 x i8] }
%"class.std::num_get" = type { %"class.std::locale::facet.base", [4 x i8] }

$_ZSt4sqrtIiEN9__gnu_cxx11__enable_ifIXsr12__is_integerIT_EE7__valueEdE6__typeES2_ = comdat any

@_ZStL8__ioinit = internal global %"class.std::ios_base::Init" zeroinitializer, align 1
@__dso_handle = external hidden global i8
@_ZSt3cin = external dso_local global %"class.std::basic_istream", align 8
@_ZSt4cout = external dso_local global %"class.std::basic_ostream", align 8
@.str = private unnamed_addr constant [2 x i8] c" \00", align 1
@llvm.global_ctors = appending global [1 x { i32, void ()*, i8* }] [{ i32, void ()*, i8* } { i32 65535, void ()* @_GLOBAL__sub_I_776.cpp, i8* null }]

; Function Attrs: noinline uwtable
define internal void @__cxx_global_var_init() #0 section ".text.startup" {
  call void @_ZNSt8ios_base4InitC1Ev(%"class.std::ios_base::Init"* @_ZStL8__ioinit)
  %1 = call i32 @__cxa_atexit(void (i8*)* bitcast (void (%"class.std::ios_base::Init"*)* @_ZNSt8ios_base4InitD1Ev to void (i8*)*), i8* getelementptr inbounds (%"class.std::ios_base::Init", %"class.std::ios_base::Init"* @_ZStL8__ioinit, i32 0, i32 0), i8* @__dso_handle) #3
  ret void
}

declare dso_local void @_ZNSt8ios_base4InitC1Ev(%"class.std::ios_base::Init"*) unnamed_addr #1

; Function Attrs: nounwind
declare dso_local void @_ZNSt8ios_base4InitD1Ev(%"class.std::ios_base::Init"*) unnamed_addr #2

; Function Attrs: nounwind
declare dso_local i32 @__cxa_atexit(void (i8*)*, i8*, i8*) #3

; Function Attrs: noinline norecurse uwtable
define dso_local i32 @main() #4 {
  %1 = alloca i32, align 4
  %2 = alloca i32, align 4
  %3 = alloca i32, align 4
  %4 = alloca i32, align 4
  %5 = alloca i32, align 4
  %6 = alloca i32, align 4
  %7 = alloca i32, align 4
  store i32 0, i32* %1, align 4
  store i32 0, i32* %7, align 4
  %8 = call dereferenceable(280) %"class.std::basic_istream"* @_ZNSirsERi(%"class.std::basic_istream"* @_ZSt3cin, i32* dereferenceable(4) %2)
  store i32 3, i32* %3, align 4
  br label %9

9:                                                ; preds = %79, %0
  %10 = load i32, i32* %3, align 4
  %11 = load i32, i32* %2, align 4
  %12 = sdiv i32 %11, 2
  %13 = icmp sle i32 %10, %12
  br i1 %13, label %14, label %82

14:                                               ; preds = %9
  %15 = load i32, i32* %2, align 4
  %16 = call double @_ZSt4sqrtIiEN9__gnu_cxx11__enable_ifIXsr12__is_integerIT_EE7__valueEdE6__typeES2_(i32 %15)
  %17 = fptosi double %16 to i32
  store i32 %17, i32* %6, align 4
  store i32 0, i32* %7, align 4
  store i32 2, i32* %5, align 4
  br label %18

18:                                               ; preds = %36, %14
  %19 = load i32, i32* %5, align 4
  %20 = load i32, i32* %6, align 4
  %21 = icmp sle i32 %19, %20
  br i1 %21, label %22, label %39

22:                                               ; preds = %18
  %23 = load i32, i32* %5, align 4
  %24 = load i32, i32* %3, align 4
  %25 = icmp eq i32 %23, %24
  br i1 %25, label %26, label %27

26:                                               ; preds = %22
  br label %39

27:                                               ; preds = %22
  %28 = load i32, i32* %3, align 4
  %29 = load i32, i32* %5, align 4
  %30 = srem i32 %28, %29
  %31 = icmp eq i32 %30, 0
  br i1 %31, label %32, label %35

32:                                               ; preds = %27
  %33 = load i32, i32* %7, align 4
  %34 = add nsw i32 %33, 1
  store i32 %34, i32* %7, align 4
  br label %35

35:                                               ; preds = %32, %27
  br label %36

36:                                               ; preds = %35
  %37 = load i32, i32* %5, align 4
  %38 = add nsw i32 %37, 1
  store i32 %38, i32* %5, align 4
  br label %18

39:                                               ; preds = %26, %18
  %40 = load i32, i32* %7, align 4
  %41 = icmp eq i32 %40, 0
  br i1 %41, label %42, label %68

42:                                               ; preds = %39
  %43 = load i32, i32* %2, align 4
  %44 = load i32, i32* %3, align 4
  %45 = sub nsw i32 %43, %44
  store i32 %45, i32* %4, align 4
  store i32 0, i32* %7, align 4
  store i32 2, i32* %5, align 4
  br label %46

46:                                               ; preds = %64, %42
  %47 = load i32, i32* %5, align 4
  %48 = load i32, i32* %6, align 4
  %49 = icmp sle i32 %47, %48
  br i1 %49, label %50, label %67

50:                                               ; preds = %46
  %51 = load i32, i32* %5, align 4
  %52 = load i32, i32* %4, align 4
  %53 = icmp eq i32 %51, %52
  br i1 %53, label %54, label %55

54:                                               ; preds = %50
  br label %67

55:                                               ; preds = %50
  %56 = load i32, i32* %4, align 4
  %57 = load i32, i32* %5, align 4
  %58 = srem i32 %56, %57
  %59 = icmp eq i32 %58, 0
  br i1 %59, label %60, label %63

60:                                               ; preds = %55
  %61 = load i32, i32* %7, align 4
  %62 = add nsw i32 %61, 1
  store i32 %62, i32* %7, align 4
  br label %63

63:                                               ; preds = %60, %55
  br label %64

64:                                               ; preds = %63
  %65 = load i32, i32* %5, align 4
  %66 = add nsw i32 %65, 1
  store i32 %66, i32* %5, align 4
  br label %46

67:                                               ; preds = %54, %46
  br label %68

68:                                               ; preds = %67, %39
  %69 = load i32, i32* %7, align 4
  %70 = icmp eq i32 %69, 0
  br i1 %70, label %71, label %78

71:                                               ; preds = %68
  %72 = load i32, i32* %3, align 4
  %73 = call dereferenceable(272) %"class.std::basic_ostream"* @_ZNSolsEi(%"class.std::basic_ostream"* @_ZSt4cout, i32 %72)
  %74 = call dereferenceable(272) %"class.std::basic_ostream"* @_ZStlsISt11char_traitsIcEERSt13basic_ostreamIcT_ES5_PKc(%"class.std::basic_ostream"* dereferenceable(272) %73, i8* getelementptr inbounds ([2 x i8], [2 x i8]* @.str, i64 0, i64 0))
  %75 = load i32, i32* %4, align 4
  %76 = call dereferenceable(272) %"class.std::basic_ostream"* @_ZNSolsEi(%"class.std::basic_ostream"* %74, i32 %75)
  %77 = call dereferenceable(272) %"class.std::basic_ostream"* @_ZNSolsEPFRSoS_E(%"class.std::basic_ostream"* %76, %"class.std::basic_ostream"* (%"class.std::basic_ostream"*)* @_ZSt4endlIcSt11char_traitsIcEERSt13basic_ostreamIT_T0_ES6_)
  br label %78

78:                                               ; preds = %71, %68
  br label %79

79:                                               ; preds = %78
  %80 = load i32, i32* %3, align 4
  %81 = add nsw i32 %80, 2
  store i32 %81, i32* %3, align 4
  br label %9

82:                                               ; preds = %9
  ret i32 0
}

declare dso_local dereferenceable(280) %"class.std::basic_istream"* @_ZNSirsERi(%"class.std::basic_istream"*, i32* dereferenceable(4)) #1

; Function Attrs: noinline nounwind uwtable
define linkonce_odr dso_local double @_ZSt4sqrtIiEN9__gnu_cxx11__enable_ifIXsr12__is_integerIT_EE7__valueEdE6__typeES2_(i32 %0) #5 comdat {
  %2 = alloca i32, align 4
  store i32 %0, i32* %2, align 4
  %3 = load i32, i32* %2, align 4
  %4 = sitofp i32 %3 to double
  %5 = call double @sqrt(double %4) #3
  ret double %5
}

declare dso_local dereferenceable(272) %"class.std::basic_ostream"* @_ZStlsISt11char_traitsIcEERSt13basic_ostreamIcT_ES5_PKc(%"class.std::basic_ostream"* dereferenceable(272), i8*) #1

declare dso_local dereferenceable(272) %"class.std::basic_ostream"* @_ZNSolsEi(%"class.std::basic_ostream"*, i32) #1

declare dso_local dereferenceable(272) %"class.std::basic_ostream"* @_ZNSolsEPFRSoS_E(%"class.std::basic_ostream"*, %"class.std::basic_ostream"* (%"class.std::basic_ostream"*)*) #1

declare dso_local dereferenceable(272) %"class.std::basic_ostream"* @_ZSt4endlIcSt11char_traitsIcEERSt13basic_ostreamIT_T0_ES6_(%"class.std::basic_ostream"* dereferenceable(272)) #1

; Function Attrs: nounwind
declare dso_local double @sqrt(double) #2

; Function Attrs: noinline uwtable
define internal void @_GLOBAL__sub_I_776.cpp() #0 section ".text.startup" {
  call void @__cxx_global_var_init()
  ret void
}


!llvm.module.flags = !{!0}
!llvm.ident = !{!1}

!0 = !{i32 1, !"wchar_size", i32 4}
!1 = !{!"clang version 10.0.0-4ubuntu1 "}
